target datalayout = "e-m:e-p270:32:32-p271:32:32-p272:64:64-i64:64-i128:128-f80:128-n8:16:32:64-S128"
target triple = "x86_64-pc-linux-gnu"

%struct.H5F_t = type { ptr, ptr, ptr, ptr, i32, ptr, i8, i8, ptr, i32 }
%struct.H5F_shared_t = type { ptr, ptr, ptr, i8, i32, i32, %struct.H5F_mtab_t, ptr, i8, i8, i64, i32, i32, i64, i64, ptr, ptr, %struct.H5AC_cache_config_t, %struct.H5AC_cache_image_config_t, i8, i8, ptr, i64, i32, i8, i64, i64, double, i64, i64, i64, i32, i32, i32, i8, i32, ptr, ptr, ptr, ptr, i8, i8, i8, i64, i64, ptr, ptr, i32, i64, i8, i32, i8, i64, i8, [13 x i32], [13 x i64], [13 x ptr], i8, i64, i64, [7 x i32], [7 x i32], %struct.H5F_blk_aggr_t, %struct.H5F_blk_aggr_t, i64, i64, %struct.H5F_meta_accum_t, i32, i32, [30 x ptr], %struct.H5F_object_flush_t, i8, ptr }
%struct.H5F_mtab_t = type { i32, i32, ptr }
%struct.H5AC_cache_config_t = type { i32, i8, i8, i8, [1025 x i8], i8, i8, i64, double, i64, i64, i64, i32, double, double, i8, i64, i32, double, double, i32, double, double, i8, i64, i32, i8, double, i64, i32 }
%struct.H5AC_cache_image_config_t = type { i32, i8, i8, i32 }
%struct.H5F_blk_aggr_t = type { i64, i64, i64, i64, i64 }
%struct.H5F_meta_accum_t = type { ptr, i64, i64, i64, i64, i64, i8 }
%struct.H5F_object_flush_t = type { ptr, ptr }

@.str.2 = private unnamed_addr constant [100 x i8] c"generated/home/dtcxzyw/WorkSpace/Projects/compilers/llvm-opt-benchmark/bench/hdf5/hdf5/src/H5Fint.c\00", align 1
@H5E_FILE_g = external global i64, align 8
@H5E_CANTFLUSH_g = external global i64, align 8
@__func__.H5F__set_libver_bounds = private unnamed_addr constant [23 x i8] c"H5F__set_libver_bounds\00", align 1
@.str.133 = private unnamed_addr constant [42 x i8] c"unable to flush file's cached information\00", align 1

; Function Attrs: nounwind uwtable
define i32 @H5F__set_libver_bounds(ptr noundef %0, i32 noundef %1, i32 noundef %2) #0 {
  %4 = alloca ptr, align 8
  %5 = alloca i32, align 4
  %6 = alloca i32, align 4
  %7 = alloca i32, align 4
  %8 = alloca i8, align 1
  store ptr %0, ptr %4, align 8
  store i32 %1, ptr %5, align 4
  store i32 %2, ptr %6, align 4
  store i32 0, ptr %7, align 4
  store i8 0, ptr %8, align 1
  %9 = load ptr, ptr %4, align 8
  %10 = getelementptr inbounds %struct.H5F_t, ptr %9, i32 0, i32 2
  %11 = load ptr, ptr %10, align 8
  %12 = getelementptr inbounds %struct.H5F_shared_t, ptr %11, i32 0, i32 32
  %13 = load i32, ptr %12, align 4
  %14 = load i32, ptr %5, align 4
  %15 = icmp ne i32 %13, %14
  br i1 %15, label %24, label %16

16:                                               ; preds = %3
  %17 = load ptr, ptr %4, align 8
  %18 = getelementptr inbounds %struct.H5F_t, ptr %17, i32 0, i32 2
  %19 = load ptr, ptr %18, align 8
  %20 = getelementptr inbounds %struct.H5F_shared_t, ptr %19, i32 0, i32 33
  %21 = load i32, ptr %20, align 8
  %22 = load i32, ptr %6, align 4
  %23 = icmp ne i32 %21, %22
  br i1 %23, label %24, label %54

24:                                               ; preds = %16, %3
  %25 = load ptr, ptr %4, align 8
  %26 = call i32 @H5F__flush(ptr noundef %25)
  %27 = icmp slt i32 %26, 0
  br i1 %27, label %28, label %43

28:                                               ; preds = %24
  br label %29

29:                                               ; preds = %28
  br label %30

30:                                               ; preds = %29
  br label %31

31:                                               ; preds = %30
  %32 = load i64, ptr @H5E_FILE_g, align 8
  %33 = load i64, ptr @H5E_CANTFLUSH_g, align 8
  %34 = call i32 (ptr, ptr, i32, i64, i64, ptr, ...) @H5E_printf_stack(ptr noundef @.str.2, ptr noundef @__func__.H5F__set_libver_bounds, i32 noundef 3200, i64 noundef %32, i64 noundef %33, ptr noundef @.str.133)
  br label %35

35:                                               ; preds = %31
  store i8 1, ptr %8, align 1
  %36 = load i8, ptr %8, align 1
  %37 = trunc i8 %36 to i1
  %38 = zext i1 %37 to i8
  store i8 %38, ptr %8, align 1
  br label %39

39:                                               ; preds = %35
  br label %40

40:                                               ; preds = %39
  store i32 -1, ptr %7, align 4
  br label %55

41:                                               ; No predecessors!
  br label %42

42:                                               ; preds = %41
  br label %43

43:                                               ; preds = %42, %24
  %44 = load i32, ptr %5, align 4
  %45 = load ptr, ptr %4, align 8
  %46 = getelementptr inbounds %struct.H5F_t, ptr %45, i32 0, i32 2
  %47 = load ptr, ptr %46, align 8
  %48 = getelementptr inbounds %struct.H5F_shared_t, ptr %47, i32 0, i32 32
  store i32 %44, ptr %48, align 4
  %49 = load i32, ptr %6, align 4
  %50 = load ptr, ptr %4, align 8
  %51 = getelementptr inbounds %struct.H5F_t, ptr %50, i32 0, i32 2
  %52 = load ptr, ptr %51, align 8
  %53 = getelementptr inbounds %struct.H5F_shared_t, ptr %52, i32 0, i32 33
  store i32 %49, ptr %53, align 8
  br label %54

54:                                               ; preds = %43, %16
  br label %55

55:                                               ; preds = %54, %40
  %56 = load i32, ptr %7, align 4
  ret i32 %56
}