; Function Attrs: nounwind uwtable
define range(i32 -1, 1) i32 @H5F__set_libver_bounds(ptr noundef %0, i32 noundef %1, i32 noundef %2) local_unnamed_addr #0 {
  %4 = getelementptr inbounds i8, ptr %0, i64 16
  %5 = load ptr, ptr %4, align 8
  %6 = getelementptr inbounds i8, ptr %5, i64 1428
  %7 = load i32, ptr %6, align 4
  %.not = icmp eq i32 %7, %1
  br i1 %.not, label %8, label %11

8:                                                ; preds = %3
  %9 = getelementptr inbounds i8, ptr %5, i64 1432
  %10 = load i32, ptr %9, align 8
  %.not10 = icmp eq i32 %10, %2
  br i1 %.not10, label %23, label %11

11:                                               ; preds = %8, %3
  %12 = tail call i32 @H5F__flush(ptr noundef nonnull %0)
  %13 = icmp slt i32 %12, 0
  br i1 %13, label %14, label %18

14:                                               ; preds = %11
  %15 = load i64, ptr @H5E_FILE_g, align 8
  %16 = load i64, ptr @H5E_CANTFLUSH_g, align 8
  %17 = tail call i32 (ptr, ptr, i32, i64, i64, ptr, ...) @H5E_printf_stack(ptr noundef nonnull @.str.2, ptr noundef nonnull @__func__.H5F__set_libver_bounds, i32 noundef 3200, i64 noundef %15, i64 noundef %16, ptr noundef nonnull @.str.133) #22
  br label %23

18:                                               ; preds = %11
  %19 = load ptr, ptr %4, align 8
  %20 = getelementptr inbounds i8, ptr %19, i64 1428
  store i32 %1, ptr %20, align 4
  %21 = load ptr, ptr %4, align 8
  %22 = getelementptr inbounds i8, ptr %21, i64 1432
  store i32 %2, ptr %22, align 8
  br label %23

23:                                               ; preds = %8, %18, %14
  %.0 = phi i32 [ -1, %14 ], [ 0, %18 ], [ 0, %8 ]
  ret i32 %.0
}